target datalayout = "e-m:e-p270:32:32-p271:32:32-p272:64:64-i64:64-i128:128-f80:128-n8:16:32:64-S128"
target triple = "x86_64-pc-linux-gnu"

%struct.Extra_ImageTree_t_ = type { ptr, ptr, ptr, i32, i32, i32, i32 }
%struct.Extra_ImageNode_t_ = type { ptr, ptr, ptr, ptr, ptr, ptr }

; Function Attrs: nounwind uwtable
define void @Extra_bddImageTreeDelete(ptr noundef %0) #0 {
  %2 = alloca ptr, align 8
  store ptr %0, ptr %2, align 8, !tbaa !35
  %3 = load ptr, ptr %2, align 8, !tbaa !35
  %4 = getelementptr inbounds nuw %struct.Extra_ImageTree_t_, ptr %3, i32 0, i32 2
  %5 = load ptr, ptr %4, align 8, !tbaa !48
  %6 = icmp ne ptr %5, null
  br i1 %6, label %7, label %16

7:                                                ; preds = %1
  %8 = load ptr, ptr %2, align 8, !tbaa !35
  %9 = getelementptr inbounds nuw %struct.Extra_ImageTree_t_, ptr %8, i32 0, i32 0
  %10 = load ptr, ptr %9, align 8, !tbaa !45
  %11 = getelementptr inbounds nuw %struct.Extra_ImageNode_t_, ptr %10, i32 0, i32 0
  %12 = load ptr, ptr %11, align 8, !tbaa !74
  %13 = load ptr, ptr %2, align 8, !tbaa !35
  %14 = getelementptr inbounds nuw %struct.Extra_ImageTree_t_, ptr %13, i32 0, i32 2
  %15 = load ptr, ptr %14, align 8, !tbaa !48
  call void @Cudd_RecursiveDeref(ptr noundef %12, ptr noundef %15)
  br label %16

16:                                               ; preds = %7, %1
  %17 = load ptr, ptr %2, align 8, !tbaa !35
  %18 = getelementptr inbounds nuw %struct.Extra_ImageTree_t_, ptr %17, i32 0, i32 0
  %19 = load ptr, ptr %18, align 8, !tbaa !45
  call void @Extra_bddImageTreeDelete_rec(ptr noundef %19)
  %20 = load ptr, ptr %2, align 8, !tbaa !35
  %21 = icmp ne ptr %20, null
  br i1 %21, label %22, label %24

22:                                               ; preds = %16
  %23 = load ptr, ptr %2, align 8, !tbaa !35
  call void @free(ptr noundef %23) #6
  store ptr null, ptr %2, align 8, !tbaa !35
  br label %25

24:                                               ; preds = %16
  br label %25

25:                                               ; preds = %24, %22
  ret void
}