; Function Attrs: nounwind uwtable
define void @Extra_bddImageTreeDelete(ptr noundef captures(none) %0) local_unnamed_addr #0 {
  %2 = getelementptr inbounds nuw i8, ptr %0, i64 16
  %3 = load ptr, ptr %2, align 8, !tbaa !73
  %.not = icmp eq ptr %3, null
  br i1 %.not, label %7, label %4

4:                                                ; preds = %1
  %5 = load ptr, ptr %0, align 8, !tbaa !72
  %6 = load ptr, ptr %5, align 8, !tbaa !53
  tail call void @Cudd_RecursiveDeref(ptr noundef %6, ptr noundef nonnull %3) #10
  br label %7

7:                                                ; preds = %4, %1
  %8 = load ptr, ptr %0, align 8, !tbaa !72
  tail call fastcc void @Extra_bddImageTreeDelete_rec(ptr noundef %8)
  tail call void @free(ptr noundef nonnull %0) #10
  ret void
}